; ModuleID = 'bench/linux/original/n_null.ll'
source_filename = "bench/linux/original/n_null.ll"
target datalayout = "e-m:e-p270:32:32-p271:32:32-p272:64:64-i64:64-i128:128-f80:128-n8:16:32:64-S128"
target triple = "x86_64-unknown-linux-gnu"

module asm ".section\09\22.initcall6.init\22, \22a\22\09\09"
module asm "__initcall__kmod_n_null__347_44_n_null_init6:\09\09\09"
module asm ".long\09n_null_init - .\09"
module asm ".previous\09\09\09\09\09"

%struct.tty_ldisc_ops = type { ptr, i32, ptr, ptr, ptr, ptr, ptr, ptr, ptr, ptr, ptr, ptr, ptr, ptr, ptr, ptr, ptr, ptr }

@null_ldisc = internal global %struct.tty_ldisc_ops { ptr @.str, i32 27, ptr null, ptr null, ptr null, ptr @n_null_read, ptr @n_null_write, ptr null, ptr null, ptr null, ptr null, ptr null, ptr null, ptr null, ptr null, ptr null, ptr null, ptr null }, align 8
@__UNIQUE_ID___addressable_n_null_init348 = internal global ptr @n_null_init, section ".discard.addressable", align 8
@__exitcall_n_null_exit = internal global ptr @n_null_exit, section ".exitcall.exit", align 8
@__UNIQUE_ID_file349 = internal constant [31 x i8] c"n_null.file=drivers/tty/n_null\00", section ".modinfo", align 1
@__UNIQUE_ID_license350 = internal constant [19 x i8] c"n_null.license=GPL\00", section ".modinfo", align 1
@__UNIQUE_ID_author351 = internal constant [23 x i8] c"n_null.author=Alan Cox\00", section ".modinfo", align 1
@__UNIQUE_ID_alias352 = internal constant [26 x i8] c"n_null.alias=tty-ldisc-27\00", section ".modinfo", align 1
@__UNIQUE_ID_description353 = internal constant [37 x i8] c"n_null.description=Null ldisc driver\00", section ".modinfo", align 1
@.str = private unnamed_addr constant [7 x i8] c"n_null\00", align 1
@.str.1 = private unnamed_addr constant [21 x i8] c"drivers/tty/n_null.c\00", align 1
@llvm.compiler.used = appending global [8 x ptr] [ptr @__UNIQUE_ID___addressable_n_null_init348, ptr @__UNIQUE_ID_alias352, ptr @__UNIQUE_ID_author351, ptr @__UNIQUE_ID_description353, ptr @__UNIQUE_ID_file349, ptr @__UNIQUE_ID_license350, ptr @__exitcall_n_null_exit, ptr @n_null_exit], section "llvm.metadata"

; Function Attrs: cold fn_ret_thunk_extern nounwind null_pointer_is_valid optsize
define internal void @n_null_exit() #0 section ".exit.text" align 16 {
  tail call void @tty_unregister_ldisc(ptr noundef nonnull @null_ldisc) #3
  ret void
}

; Function Attrs: null_pointer_is_valid
declare dso_local void @tty_unregister_ldisc(ptr noundef) local_unnamed_addr #1

; Function Attrs: cold fn_ret_thunk_extern nounwind null_pointer_is_valid optsize
define internal noundef i32 @n_null_init() #0 section ".init.text" align 16 {
  %1 = tail call i32 @tty_register_ldisc(ptr noundef nonnull @null_ldisc) #3
  %2 = icmp eq i32 %1, 0
  br i1 %2, label %4, label %3, !prof !5

3:                                                ; preds = %0
  tail call void asm sideeffect "346: nop\0A\09.pushsection .discard.instr_begin\0A\09.long 346b - .\0A\09.popsection\0A\09", "i,~{dirflag},~{fpsr},~{flags}"(i32 346) #3, !srcloc !6
  tail call void asm sideeffect "1:\09.byte 0x0f, 0x0b\0A.pushsection __bug_table,\22aw\22\0A2:\09.long 1b - .\09# bug_entry::bug_addr\0A\09.long ${0:c} - .\09# bug_entry::file\0A\09.word ${1:c}\09# bug_entry::line\0A\09.word ${2:c}\09# bug_entry::flags\0A\09.org 2b+${3:c}\0A.popsection\0A", "i,i,i,i,~{dirflag},~{fpsr},~{flags}"(ptr nonnull @.str.1, i32 35, i32 0, i64 12) #3, !srcloc !7
  unreachable

4:                                                ; preds = %0
  ret i32 0
}

; Function Attrs: fn_ret_thunk_extern mustprogress nofree norecurse nosync nounwind null_pointer_is_valid willreturn memory(none)
define internal noundef i64 @n_null_read(ptr nocapture readnone %0, ptr nocapture readnone %1, ptr nocapture readnone %2, i64 %3, ptr nocapture readnone %4, i64 %5) #2 align 16 {
  ret i64 -95
}

; Function Attrs: fn_ret_thunk_extern mustprogress nofree norecurse nosync nounwind null_pointer_is_valid willreturn memory(none)
define internal noundef i64 @n_null_write(ptr nocapture readnone %0, ptr nocapture readnone %1, ptr nocapture readnone %2, i64 %3) #2 align 16 {
  ret i64 -95
}

; Function Attrs: null_pointer_is_valid
declare dso_local i32 @tty_register_ldisc(ptr noundef) local_unnamed_addr #1


!llvm.module.flags = !{!0, !1, !2, !3, !4}

!0 = !{i32 1, !"wchar_size", i32 2}
!1 = !{i32 8, !"cf-protection-branch", i32 1}
!2 = !{i32 4, !"function_return_thunk_extern", i32 1}
!3 = !{i32 4, !"indirect_branch_cs_prefix", i32 1}
!4 = !{i32 4, !"SkipRaxSetup", i32 1}
!5 = !{!"branch_weights", i32 2000, i32 1}
!6 = !{i64 2154785704, i64 2154785513, i64 2154785565, i64 2154785611, i64 2154785639}
!7 = !{i64 2154785778, i64 2154785807, i64 2154785853, i64 2154785911, i64 2154785965, i64 2154786019, i64 2154786074, i64 2154786105}
